; Function Attrs: null_pointer_is_valid sspstrong uwtable
define internal fastcc void @add_ga_key(i16 noundef zeroext %0, ptr noundef %1, ptr noundef %2) unnamed_addr #0 {
  %4 = alloca i64, align 8
  %5 = alloca [25 x i8], align 16
  %6 = tail call i64 @strlen(ptr noundef %1) #17
  %7 = and i64 %6, 4294967295
  %8 = icmp eq i64 %7, 24
  br i1 %8, label %9, label %42

9:                                                ; preds = %3
  call void @llvm.lifetime.start.p0(i64 25, ptr nonnull %5) #14
  call void @llvm.lifetime.start.p0(i64 8, ptr nonnull %4) #14
  %10 = call i32 (ptr, i64, i32, i64, ptr, ...) @__snprintf_chk(ptr noundef nonnull %5, i64 noundef 25, i32 noundef 2, i64 noundef 25, ptr noundef nonnull @.str.3, ptr noundef %1)
  %11 = call ptr @g_base64_decode_inplace(ptr noundef nonnull %5, ptr noundef nonnull %4)
  call void @llvm.lifetime.end.p0(i64 8, ptr nonnull %4) #14
  %12 = load ptr, ptr @knx_keyring_ga_keys, align 8
  %.not2 = icmp eq ptr %12, null
  br i1 %.not2, label %._crit_edge, label %.lr.ph

.lr.ph:                                           ; preds = %9, %20
  %13 = phi ptr [ %21, %20 ], [ %12, %9 ]
  %14 = getelementptr inbounds nuw i8, ptr %13, i64 8
  %15 = load i16, ptr %14, align 8
  %16 = icmp eq i16 %15, %0
  br i1 %16, label %17, label %20

17:                                               ; preds = %.lr.ph
  %18 = getelementptr inbounds nuw i8, ptr %13, i64 10
  %bcmp = call i32 @bcmp(ptr noundef nonnull dereferenceable(16) %18, ptr noundef nonnull dereferenceable(16) %5, i64 16)
  %19 = icmp eq i32 %bcmp, 0
  br i1 %19, label %.loopexit, label %20

20:                                               ; preds = %17, %.lr.ph
  %21 = load ptr, ptr %13, align 8
  %.not = icmp eq ptr %21, null
  br i1 %.not, label %._crit_edge, label %.lr.ph, !llvm.loop !40

._crit_edge:                                      ; preds = %20, %9
  %.023.lcssa = phi ptr [ @knx_keyring_ga_keys, %9 ], [ %13, %20 ]
  %.not27 = icmp eq ptr %2, null
  br i1 %.not27, label %36, label %22

22:                                               ; preds = %._crit_edge
  %23 = zext i16 %0 to i32
  %24 = lshr i32 %23, 11
  %25 = lshr i32 %23, 8
  %26 = and i32 %25, 7
  %27 = and i32 %23, 255
  %28 = call i32 (ptr, i32, ptr, ...) @__fprintf_chk(ptr noundef nonnull %2, i32 noundef 2, ptr noundef nonnull @.str.22, i32 noundef %24, i32 noundef %26, i32 noundef %27)
  br label %29

29:                                               ; preds = %29, %22
  %.06.i = phi i8 [ 16, %22 ], [ %34, %29 ]
  %.045.i = phi ptr [ %5, %22 ], [ %30, %29 ]
  %30 = getelementptr i8, ptr %.045.i, i64 1
  %31 = load i8, ptr %.045.i, align 1
  %32 = zext i8 %31 to i32
  %33 = call i32 (ptr, i32, ptr, ...) @__fprintf_chk(ptr noundef nonnull %2, i32 noundef 2, ptr noundef nonnull @.str.20, i32 noundef %32)
  %34 = add nsw i8 %.06.i, -1
  %.not.i = icmp eq i8 %34, 0
  br i1 %.not.i, label %fprintf_hex.exit, label %29, !llvm.loop !39

fprintf_hex.exit:                                 ; preds = %29
  %35 = call i32 @fputc(i32 noundef 10, ptr noundef nonnull %2)
  br label %36

36:                                               ; preds = %fprintf_hex.exit, %._crit_edge
  %37 = call ptr @wmem_epan_scope()
  %38 = call noalias dereferenceable_or_null(32) ptr @wmem_alloc(ptr noundef %37, i64 noundef 32) #16
  %.not28 = icmp eq ptr %38, null
  br i1 %.not28, label %.loopexit, label %39

39:                                               ; preds = %36
  store ptr null, ptr %38, align 8
  %40 = getelementptr inbounds nuw i8, ptr %38, i64 8
  store i16 %0, ptr %40, align 8
  %41 = getelementptr inbounds nuw i8, ptr %38, i64 10
  call void @llvm.memcpy.p0.p0.i64(ptr noundef nonnull align 1 dereferenceable(16) %41, ptr noundef nonnull align 16 dereferenceable(16) %5, i64 noundef 16, i1 noundef false) #14
  store ptr %38, ptr %.023.lcssa, align 8
  br label %.loopexit

.loopexit:                                        ; preds = %17, %36, %39
  call void @llvm.lifetime.end.p0(i64 25, ptr nonnull %5) #14
  br label %42

42:                                               ; preds = %.loopexit, %3
  ret void
}